target datalayout = "e-m:e-p270:32:32-p271:32:32-p272:64:64-i64:64-i128:128-f80:128-n8:16:32:64-S128"
target triple = "x86_64-pc-linux-gnu"

%"class.icu_77::UCharsTrie::Iterator" = type { ptr, ptr, ptr, i32, i32, i8, %"class.icu_77::UnicodeString", i32, i32, ptr }
%"class.icu_77::UnicodeString" = type { %"class.icu_77::Replaceable", %"union.icu_77::UnicodeString::StackBufferOrFields" }
%"class.icu_77::Replaceable" = type { %"class.icu_77::UObject" }
%"class.icu_77::UObject" = type { ptr }
%"union.icu_77::UnicodeString::StackBufferOrFields" = type { %struct.anon.0, [32 x i8] }
%struct.anon.0 = type { i16, i32, i32, ptr }

; Function Attrs: inlinehint mustprogress nounwind uwtable
define linkonce_odr void @_ZN6icu_7713UnicodeString14setShortLengthEi(ptr noundef nonnull align 8 dereferenceable(64) %0, i32 noundef %1) #2 comdat align 2 {
  %3 = alloca ptr, align 8
  %4 = alloca i32, align 4
  store ptr %0, ptr %3, align 8, !tbaa !30
  store i32 %1, ptr %4, align 4, !tbaa !10
  %5 = load ptr, ptr %3, align 8
  %6 = getelementptr inbounds nuw %"class.icu_77::UnicodeString", ptr %5, i32 0, i32 1
  %7 = getelementptr inbounds nuw %struct.anon.0, ptr %6, i32 0, i32 0
  %8 = load i16, ptr %7, align 8, !tbaa !34
  %9 = sext i16 %8 to i32
  %10 = and i32 %9, 31
  %11 = load i32, ptr %4, align 4, !tbaa !10
  %12 = shl i32 %11, 5
  %13 = or i32 %10, %12
  %14 = trunc i32 %13 to i16
  %15 = getelementptr inbounds nuw %"class.icu_77::UnicodeString", ptr %5, i32 0, i32 1
  %16 = getelementptr inbounds nuw %struct.anon.0, ptr %15, i32 0, i32 0
  store i16 %14, ptr %16, align 8, !tbaa !34
  ret void
}

; Function Attrs: inlinehint mustprogress nounwind uwtable
define linkonce_odr noundef i32 @_ZNK6icu_7713UnicodeString14getShortLengthEv(ptr noundef nonnull align 8 dereferenceable(64) %0) #2 comdat align 2 {
  %2 = alloca ptr, align 8
  store ptr %0, ptr %2, align 8, !tbaa !30
  %3 = load ptr, ptr %2, align 8
  %4 = getelementptr inbounds nuw %"class.icu_77::UnicodeString", ptr %3, i32 0, i32 1
  %5 = getelementptr inbounds nuw %struct.anon.0, ptr %4, i32 0, i32 0
  %6 = load i16, ptr %5, align 8, !tbaa !34
  %7 = sext i16 %6 to i32
  %8 = ashr i32 %7, 5
  ret i32 %8
}

; Function Attrs: inlinehint mustprogress nounwind uwtable
define linkonce_odr noundef signext i8 @_ZNK6icu_7713UnicodeString14hasShortLengthEv(ptr noundef nonnull align 8 dereferenceable(64) %0) #2 comdat align 2 {
  %2 = alloca ptr, align 8
  store ptr %0, ptr %2, align 8, !tbaa !30
  %3 = load ptr, ptr %2, align 8
  %4 = getelementptr inbounds nuw %"class.icu_77::UnicodeString", ptr %3, i32 0, i32 1
  %5 = getelementptr inbounds nuw %struct.anon.0, ptr %4, i32 0, i32 0
  %6 = load i16, ptr %5, align 8, !tbaa !34
  %7 = sext i16 %6 to i32
  %8 = icmp sge i32 %7, 0
  %9 = zext i1 %8 to i8
  ret i8 %9
}

; Function Attrs: inlinehint mustprogress uwtable
define linkonce_odr void @_ZN6icu_7713UnicodeString9setLengthEi(ptr noundef nonnull align 8 dereferenceable(64) %0, i32 noundef %1) #1 comdat align 2 {
  %3 = alloca ptr, align 8
  %4 = alloca i32, align 4
  store ptr %0, ptr %3, align 8, !tbaa !30
  store i32 %1, ptr %4, align 4, !tbaa !10
  %5 = load ptr, ptr %3, align 8
  %6 = load i32, ptr %4, align 4, !tbaa !10
  %7 = icmp sle i32 %6, 1023
  br i1 %7, label %8, label %10

8:                                                ; preds = %2
  %9 = load i32, ptr %4, align 4, !tbaa !10
  call void @_ZN6icu_7713UnicodeString14setShortLengthEi(ptr noundef nonnull align 8 dereferenceable(64) %5, i32 noundef %9)
  br label %20

10:                                               ; preds = %2
  %11 = getelementptr inbounds nuw %"class.icu_77::UnicodeString", ptr %5, i32 0, i32 1
  %12 = getelementptr inbounds nuw %struct.anon.0, ptr %11, i32 0, i32 0
  %13 = load i16, ptr %12, align 8, !tbaa !34
  %14 = sext i16 %13 to i32
  %15 = or i32 %14, 65504
  %16 = trunc i32 %15 to i16
  store i16 %16, ptr %12, align 8, !tbaa !34
  %17 = load i32, ptr %4, align 4, !tbaa !10
  %18 = getelementptr inbounds nuw %"class.icu_77::UnicodeString", ptr %5, i32 0, i32 1
  %19 = getelementptr inbounds nuw %struct.anon.0, ptr %18, i32 0, i32 1
  store i32 %17, ptr %19, align 4, !tbaa !34
  br label %20

20:                                               ; preds = %10, %8
  ret void
}

; Function Attrs: inlinehint mustprogress uwtable
define linkonce_odr noundef i32 @_ZNK6icu_7713UnicodeString6lengthEv(ptr noundef nonnull align 8 dereferenceable(64) %0) #1 comdat align 2 {
  %2 = alloca ptr, align 8
  store ptr %0, ptr %2, align 8, !tbaa !30
  %3 = load ptr, ptr %2, align 8
  %4 = call noundef signext i8 @_ZNK6icu_7713UnicodeString14hasShortLengthEv(ptr noundef nonnull align 8 dereferenceable(64) %3)
  %5 = icmp ne i8 %4, 0
  br i1 %5, label %6, label %8

6:                                                ; preds = %1
  %7 = call noundef i32 @_ZNK6icu_7713UnicodeString14getShortLengthEv(ptr noundef nonnull align 8 dereferenceable(64) %3)
  br label %12

8:                                                ; preds = %1
  %9 = getelementptr inbounds nuw %"class.icu_77::UnicodeString", ptr %3, i32 0, i32 1
  %10 = getelementptr inbounds nuw %struct.anon.0, ptr %9, i32 0, i32 1
  %11 = load i32, ptr %10, align 4, !tbaa !34
  br label %12

12:                                               ; preds = %8, %6
  %13 = phi i32 [ %7, %6 ], [ %11, %8 ]
  ret i32 %13
}

; Function Attrs: inlinehint mustprogress nounwind uwtable
define linkonce_odr noundef signext i8 @_ZNK6icu_7713UnicodeString7isBogusEv(ptr noundef nonnull align 8 dereferenceable(64) %0) #2 comdat align 2 {
  %2 = alloca ptr, align 8
  store ptr %0, ptr %2, align 8, !tbaa !30
  %3 = load ptr, ptr %2, align 8
  %4 = getelementptr inbounds nuw %"class.icu_77::UnicodeString", ptr %3, i32 0, i32 1
  %5 = getelementptr inbounds nuw %struct.anon.0, ptr %4, i32 0, i32 0
  %6 = load i16, ptr %5, align 8, !tbaa !34
  %7 = sext i16 %6 to i32
  %8 = and i32 %7, 1
  %9 = trunc i32 %8 to i8
  ret i8 %9
}

; Function Attrs: inlinehint mustprogress uwtable
define linkonce_odr noundef signext i8 @_ZN6icu_7713UnicodeString8truncateEi(ptr noundef nonnull align 8 dereferenceable(64) %0, i32 noundef %1) #1 comdat align 2 {
  %3 = alloca i8, align 1
  %4 = alloca ptr, align 8
  %5 = alloca i32, align 4
  store ptr %0, ptr %4, align 8, !tbaa !30
  store i32 %1, ptr %5, align 4, !tbaa !10
  %6 = load ptr, ptr %4, align 8
  %7 = call noundef signext i8 @_ZNK6icu_7713UnicodeString7isBogusEv(ptr noundef nonnull align 8 dereferenceable(64) %6)
  %8 = icmp ne i8 %7, 0
  br i1 %8, label %9, label %13

9:                                                ; preds = %2
  %10 = load i32, ptr %5, align 4, !tbaa !10
  %11 = icmp eq i32 %10, 0
  br i1 %11, label %12, label %13

12:                                               ; preds = %9
  call void @_ZN6icu_7713UnicodeString7unBogusEv(ptr noundef nonnull align 8 dereferenceable(64) %6)
  store i8 0, ptr %3, align 1
  br label %20

13:                                               ; preds = %9, %2
  %14 = load i32, ptr %5, align 4, !tbaa !10
  %15 = call noundef i32 @_ZNK6icu_7713UnicodeString6lengthEv(ptr noundef nonnull align 8 dereferenceable(64) %6)
  %16 = icmp ult i32 %14, %15
  br i1 %16, label %17, label %19

17:                                               ; preds = %13
  %18 = load i32, ptr %5, align 4, !tbaa !10
  call void @_ZN6icu_7713UnicodeString9setLengthEi(ptr noundef nonnull align 8 dereferenceable(64) %6, i32 noundef %18)
  store i8 1, ptr %3, align 1
  br label %20

19:                                               ; preds = %13
  store i8 0, ptr %3, align 1
  br label %20

20:                                               ; preds = %19, %17, %12
  %21 = load i8, ptr %3, align 1
  ret i8 %21
}

; Function Attrs: mustprogress uwtable
define noundef nonnull align 8 dereferenceable(120) ptr @_ZN6icu_7710UCharsTrie8Iterator5resetEv(ptr noundef nonnull align 8 dereferenceable(120) %0) #0 align 2 {
  %2 = alloca ptr, align 8
  %3 = alloca i32, align 4
  store ptr %0, ptr %2, align 8, !tbaa !3
  %4 = load ptr, ptr %2, align 8
  %5 = getelementptr inbounds nuw %"class.icu_77::UCharsTrie::Iterator", ptr %4, i32 0, i32 2
  %6 = load ptr, ptr %5, align 8, !tbaa !21
  %7 = getelementptr inbounds nuw %"class.icu_77::UCharsTrie::Iterator", ptr %4, i32 0, i32 1
  store ptr %6, ptr %7, align 8, !tbaa !20
  %8 = getelementptr inbounds nuw %"class.icu_77::UCharsTrie::Iterator", ptr %4, i32 0, i32 4
  %9 = load i32, ptr %8, align 4, !tbaa !23
  %10 = getelementptr inbounds nuw %"class.icu_77::UCharsTrie::Iterator", ptr %4, i32 0, i32 3
  store i32 %9, ptr %10, align 8, !tbaa !22
  %11 = getelementptr inbounds nuw %"class.icu_77::UCharsTrie::Iterator", ptr %4, i32 0, i32 5
  store i8 0, ptr %11, align 8, !tbaa !24
  call void @llvm.lifetime.start.p0(i64 4, ptr %3) #7
  %12 = getelementptr inbounds nuw %"class.icu_77::UCharsTrie::Iterator", ptr %4, i32 0, i32 3
  %13 = load i32, ptr %12, align 8, !tbaa !22
  %14 = add nsw i32 %13, 1
  store i32 %14, ptr %3, align 4, !tbaa !10
  %15 = getelementptr inbounds nuw %"class.icu_77::UCharsTrie::Iterator", ptr %4, i32 0, i32 7
  %16 = load i32, ptr %15, align 8, !tbaa !25
  %17 = icmp sgt i32 %16, 0
  br i1 %17, label %18, label %26

18:                                               ; preds = %1
  %19 = load i32, ptr %3, align 4, !tbaa !10
  %20 = getelementptr inbounds nuw %"class.icu_77::UCharsTrie::Iterator", ptr %4, i32 0, i32 7
  %21 = load i32, ptr %20, align 8, !tbaa !25
  %22 = icmp sgt i32 %19, %21
  br i1 %22, label %23, label %26

23:                                               ; preds = %18
  %24 = getelementptr inbounds nuw %"class.icu_77::UCharsTrie::Iterator", ptr %4, i32 0, i32 7
  %25 = load i32, ptr %24, align 8, !tbaa !25
  store i32 %25, ptr %3, align 4, !tbaa !10
  br label %26

26:                                               ; preds = %23, %18, %1
  %27 = getelementptr inbounds nuw %"class.icu_77::UCharsTrie::Iterator", ptr %4, i32 0, i32 6
  %28 = load i32, ptr %3, align 4, !tbaa !10
  %29 = call noundef signext i8 @_ZN6icu_7713UnicodeString8truncateEi(ptr noundef nonnull align 8 dereferenceable(64) %27, i32 noundef %28)
  %30 = load i32, ptr %3, align 4, !tbaa !10
  %31 = getelementptr inbounds nuw %"class.icu_77::UCharsTrie::Iterator", ptr %4, i32 0, i32 1
  %32 = load ptr, ptr %31, align 8, !tbaa !20
  %33 = sext i32 %30 to i64
  %34 = getelementptr inbounds i16, ptr %32, i64 %33
  store ptr %34, ptr %31, align 8, !tbaa !20
  %35 = load i32, ptr %3, align 4, !tbaa !10
  %36 = getelementptr inbounds nuw %"class.icu_77::UCharsTrie::Iterator", ptr %4, i32 0, i32 3
  %37 = load i32, ptr %36, align 8, !tbaa !22
  %38 = sub nsw i32 %37, %35
  store i32 %38, ptr %36, align 8, !tbaa !22
  %39 = getelementptr inbounds nuw %"class.icu_77::UCharsTrie::Iterator", ptr %4, i32 0, i32 9
  %40 = load ptr, ptr %39, align 8, !tbaa !27
  call void @_ZN6icu_779UVector327setSizeEi(ptr noundef nonnull align 8 dereferenceable(32) %40, i32 noundef 0)
  call void @llvm.lifetime.end.p0(i64 4, ptr %3) #7
  ret ptr %4
}