; Function Attrs: mustprogress uwtable
define noundef nonnull align 8 dereferenceable(120) ptr @_ZN6icu_7710UCharsTrie8Iterator5resetEv(ptr noundef nonnull returned align 8 dereferenceable(120) initializes((8, 16), (24, 28), (32, 33)) %0) local_unnamed_addr #0 align 2 {
  %2 = getelementptr inbounds nuw i8, ptr %0, i64 16
  %3 = load ptr, ptr %2, align 8, !tbaa !17
  %4 = getelementptr inbounds nuw i8, ptr %0, i64 8
  store ptr %3, ptr %4, align 8, !tbaa !16
  %5 = getelementptr inbounds nuw i8, ptr %0, i64 28
  %6 = load i32, ptr %5, align 4, !tbaa !19
  %7 = getelementptr inbounds nuw i8, ptr %0, i64 24
  store i32 %6, ptr %7, align 8, !tbaa !18
  %8 = getelementptr inbounds nuw i8, ptr %0, i64 32
  store i8 0, ptr %8, align 8, !tbaa !20
  %9 = add nsw i32 %6, 1
  %10 = getelementptr inbounds nuw i8, ptr %0, i64 104
  %11 = load i32, ptr %10, align 8, !tbaa !24
  %12 = icmp slt i32 %11, 1
  %.not = icmp slt i32 %6, %11
  %or.cond = select i1 %12, i1 true, i1 %.not
  %.0 = select i1 %or.cond, i32 %9, i32 %11
  %13 = getelementptr inbounds nuw i8, ptr %0, i64 48
  %14 = load i16, ptr %13, align 8, !tbaa !23
  %15 = and i16 %14, 1
  %16 = icmp ne i16 %15, 0
  %17 = icmp eq i32 %.0, 0
  %or.cond.i = and i1 %16, %17
  br i1 %or.cond.i, label %18, label %20

18:                                               ; preds = %1
  %19 = getelementptr inbounds nuw i8, ptr %0, i64 40
  tail call void @_ZN6icu_7713UnicodeString7unBogusEv(ptr noundef nonnull align 8 dereferenceable(64) %19)
  %.pre = load ptr, ptr %4, align 8, !tbaa !16
  %.pre6 = load i32, ptr %7, align 8, !tbaa !18
  br label %_ZN6icu_7713UnicodeString8truncateEi.exit

20:                                               ; preds = %1
  %21 = icmp slt i16 %14, 0
  %22 = ashr i16 %14, 5
  %23 = sext i16 %22 to i32
  %24 = getelementptr inbounds nuw i8, ptr %0, i64 52
  %25 = load i32, ptr %24, align 4
  %26 = select i1 %21, i32 %25, i32 %23
  %27 = icmp ult i32 %.0, %26
  br i1 %27, label %28, label %_ZN6icu_7713UnicodeString8truncateEi.exit

28:                                               ; preds = %20
  %29 = icmp slt i32 %.0, 1024
  br i1 %29, label %30, label %34

30:                                               ; preds = %28
  %31 = and i16 %14, 31
  %.tr.i.i.i = trunc i32 %.0 to i16
  %32 = shl i16 %.tr.i.i.i, 5
  %33 = or disjoint i16 %32, %31
  store i16 %33, ptr %13, align 8, !tbaa !23
  br label %_ZN6icu_7713UnicodeString8truncateEi.exit

34:                                               ; preds = %28
  %35 = or i16 %14, -32
  store i16 %35, ptr %13, align 8, !tbaa !23
  store i32 %.0, ptr %24, align 4, !tbaa !23
  br label %_ZN6icu_7713UnicodeString8truncateEi.exit

_ZN6icu_7713UnicodeString8truncateEi.exit:        ; preds = %18, %20, %30, %34
  %36 = phi i32 [ %.pre6, %18 ], [ %6, %20 ], [ %6, %30 ], [ %6, %34 ]
  %37 = phi ptr [ %.pre, %18 ], [ %3, %20 ], [ %3, %30 ], [ %3, %34 ]
  %38 = sext i32 %.0 to i64
  %39 = getelementptr inbounds i16, ptr %37, i64 %38
  store ptr %39, ptr %4, align 8, !tbaa !16
  %40 = sub nsw i32 %36, %.0
  store i32 %40, ptr %7, align 8, !tbaa !18
  %41 = getelementptr inbounds nuw i8, ptr %0, i64 112
  %42 = load ptr, ptr %41, align 8, !tbaa !26
  tail call void @_ZN6icu_779UVector327setSizeEi(ptr noundef nonnull align 8 dereferenceable(32) %42, i32 noundef 0)
  ret ptr %0
}